; Function Attrs: nounwind uwtable
define ptr @l___private_Lean_Elab_Open_0__Lean_Elab_OpenDecl_addOpenDecl___rarg(ptr noundef %0, ptr noundef %1, ptr noundef %2) #0 {
  tail call void @lean_inc_heartbeat() #6
  %4 = tail call noalias ptr @mi_malloc_small(i64 noundef 32) #6
  %5 = icmp eq ptr %4, null
  br i1 %5, label %6, label %lean_alloc_closure.exit

6:                                                ; preds = %3
  tail call void @lean_internal_panic_out_of_memory() #7
  unreachable

lean_alloc_closure.exit:                          ; preds = %3
  %7 = getelementptr inbounds nuw i8, ptr %4, i64 4
  store i32 1, ptr %4, align 4, !tbaa !8
  store i32 -184549344, ptr %7, align 4
  %8 = getelementptr inbounds nuw i8, ptr %4, i64 8
  store ptr @l___private_Lean_Elab_Open_0__Lean_Elab_OpenDecl_addOpenDecl___rarg___lambda__1, ptr %8, align 8, !tbaa !4
  %9 = getelementptr inbounds nuw i8, ptr %4, i64 16
  store i16 2, ptr %9, align 8, !tbaa !12
  %10 = getelementptr inbounds nuw i8, ptr %4, i64 18
  store i16 1, ptr %10, align 2, !tbaa !12
  %11 = getelementptr inbounds nuw i8, ptr %4, i64 24
  store ptr %1, ptr %11, align 8, !tbaa !4
  tail call void @lean_inc_heartbeat() #6
  %12 = tail call noalias ptr @mi_malloc_small(i64 noundef 40) #6
  %13 = icmp eq ptr %12, null
  br i1 %13, label %14, label %lean_alloc_closure.exit9

14:                                               ; preds = %lean_alloc_closure.exit
  tail call void @lean_internal_panic_out_of_memory() #7
  unreachable

lean_alloc_closure.exit9:                         ; preds = %lean_alloc_closure.exit
  %15 = getelementptr inbounds nuw i8, ptr %12, i64 4
  store i32 1, ptr %12, align 4, !tbaa !8
  store i32 -184549336, ptr %15, align 4
  %16 = getelementptr inbounds nuw i8, ptr %12, i64 8
  store ptr @l_ST_Prim_Ref_modifyGetUnsafe___rarg___boxed, ptr %16, align 8, !tbaa !4
  %17 = getelementptr inbounds nuw i8, ptr %12, i64 16
  store i16 3, ptr %17, align 8, !tbaa !12
  %18 = getelementptr inbounds nuw i8, ptr %12, i64 18
  store i16 2, ptr %18, align 2, !tbaa !12
  %19 = getelementptr inbounds nuw i8, ptr %12, i64 24
  store ptr %2, ptr %19, align 8, !tbaa !4
  %20 = getelementptr inbounds nuw i8, ptr %12, i64 32
  store ptr %4, ptr %20, align 8, !tbaa !4
  %21 = tail call ptr @lean_apply_2(ptr noundef %0, ptr noundef nonnull inttoptr (i64 1 to ptr), ptr noundef nonnull %12) #6
  ret ptr %21
}